target datalayout = "e-m:e-p270:32:32-p271:32:32-p272:64:64-i64:64-i128:128-f80:128-n8:16:32:64-S128"
target triple = "x86_64-pc-linux-gnu"

%struct.crypto_ex_data_st = type { ptr }
%struct.ssl_st = type { i32, i16, i16, ptr, ptr, ptr, ptr, ptr, i32, i32, ptr, ptr, i32, i32, ptr, ptr, ptr, ptr, ptr, ptr, ptr, ptr, i32, i32, [32 x i8], ptr, ptr, ptr, ptr, ptr, ptr, ptr, i64, %struct.crypto_ex_data_st, ptr, i32, i32, i32, i32, i16, ptr, i32, i64, ptr, ptr, ptr, ptr, ptr, ptr, i32, i32, ptr, ptr, i8, i8, i32 }

@.str = private unnamed_addr constant [117 x i8] c"generated/home/dtcxzyw/WorkSpace/Projects/compilers/llvm-opt-benchmark/bench/libquic/libquic/boringssl/ssl/ssl_lib.c\00", align 1

; Function Attrs: nounwind uwtable
define hidden i32 @SSL_use_psk_identity_hint(ptr noundef %0, ptr noundef %1) #0 {
  %3 = alloca i32, align 4
  %4 = alloca ptr, align 8
  %5 = alloca ptr, align 8
  store ptr %0, ptr %4, align 8, !tbaa !80
  store ptr %1, ptr %5, align 8, !tbaa !55
  %6 = load ptr, ptr %4, align 8, !tbaa !80
  %7 = icmp eq ptr %6, null
  br i1 %7, label %8, label %9

8:                                                ; preds = %2
  store i32 0, ptr %3, align 4
  br label %37

9:                                                ; preds = %2
  %10 = load ptr, ptr %5, align 8, !tbaa !55
  %11 = icmp ne ptr %10, null
  br i1 %11, label %12, label %17

12:                                               ; preds = %9
  %13 = load ptr, ptr %5, align 8, !tbaa !55
  %14 = call i64 @strlen(ptr noundef %13) #10
  %15 = icmp ugt i64 %14, 128
  br i1 %15, label %16, label %17

16:                                               ; preds = %12
  call void @ERR_put_error(i32 noundef 16, i32 noundef 0, i32 noundef 136, ptr noundef @.str, i32 noundef 2118)
  store i32 0, ptr %3, align 4
  br label %37

17:                                               ; preds = %12, %9
  %18 = load ptr, ptr %4, align 8, !tbaa !80
  %19 = getelementptr inbounds nuw %struct.ssl_st, ptr %18, i32 0, i32 28
  %20 = load ptr, ptr %19, align 8, !tbaa !121
  call void @free(ptr noundef %20) #8
  %21 = load ptr, ptr %4, align 8, !tbaa !80
  %22 = getelementptr inbounds nuw %struct.ssl_st, ptr %21, i32 0, i32 28
  store ptr null, ptr %22, align 8, !tbaa !121
  %23 = load ptr, ptr %5, align 8, !tbaa !55
  %24 = icmp ne ptr %23, null
  br i1 %24, label %25, label %36

25:                                               ; preds = %17
  %26 = load ptr, ptr %5, align 8, !tbaa !55
  %27 = call ptr @BUF_strdup(ptr noundef %26)
  %28 = load ptr, ptr %4, align 8, !tbaa !80
  %29 = getelementptr inbounds nuw %struct.ssl_st, ptr %28, i32 0, i32 28
  store ptr %27, ptr %29, align 8, !tbaa !121
  %30 = load ptr, ptr %4, align 8, !tbaa !80
  %31 = getelementptr inbounds nuw %struct.ssl_st, ptr %30, i32 0, i32 28
  %32 = load ptr, ptr %31, align 8, !tbaa !121
  %33 = icmp eq ptr %32, null
  br i1 %33, label %34, label %35

34:                                               ; preds = %25
  store i32 0, ptr %3, align 4
  br label %37

35:                                               ; preds = %25
  br label %36

36:                                               ; preds = %35, %17
  store i32 1, ptr %3, align 4
  br label %37

37:                                               ; preds = %36, %34, %16, %8
  %38 = load i32, ptr %3, align 4
  ret i32 %38
}