; Function Attrs: nounwind uwtable
define hidden range(i32 0, 2) i32 @SSL_use_psk_identity_hint(ptr noundef captures(address_is_null) %0, ptr noundef %1) local_unnamed_addr #0 {
  %3 = icmp eq ptr %0, null
  br i1 %3, label %17, label %4

4:                                                ; preds = %2
  %.not = icmp eq ptr %1, null
  br i1 %.not, label %.thread, label %7

.thread:                                          ; preds = %4
  %5 = getelementptr inbounds nuw i8, ptr %0, i64 208
  %6 = load ptr, ptr %5, align 8, !tbaa !110
  tail call void @free(ptr noundef %6) #21
  store ptr null, ptr %5, align 8, !tbaa !110
  br label %16

7:                                                ; preds = %4
  %8 = tail call i64 @strlen(ptr noundef nonnull dereferenceable(1) %1) #22
  %9 = icmp ugt i64 %8, 128
  br i1 %9, label %10, label %11

10:                                               ; preds = %7
  tail call void @ERR_put_error(i32 noundef 16, i32 noundef 0, i32 noundef 136, ptr noundef nonnull @.str, i32 noundef 2118) #21
  br label %17

11:                                               ; preds = %7
  %12 = getelementptr inbounds nuw i8, ptr %0, i64 208
  %13 = load ptr, ptr %12, align 8, !tbaa !110
  tail call void @free(ptr noundef %13) #21
  store ptr null, ptr %12, align 8, !tbaa !110
  %14 = tail call ptr @BUF_strdup(ptr noundef nonnull %1) #21
  store ptr %14, ptr %12, align 8, !tbaa !110
  %15 = icmp eq ptr %14, null
  br i1 %15, label %17, label %16

16:                                               ; preds = %.thread, %11
  br label %17

17:                                               ; preds = %11, %2, %16, %10
  %.0 = phi i32 [ 0, %10 ], [ 1, %16 ], [ 0, %2 ], [ 0, %11 ]
  ret i32 %.0
}